target datalayout = "e-m:e-p270:32:32-p271:32:32-p272:64:64-i64:64-i128:128-f80:128-n8:16:32:64-S128"
target triple = "x86_64-pc-linux-gnu"

%struct.magic_set = type { [2 x ptr], %struct.cont, %struct.out, i32, i32, i32, i32, i32, ptr, i64, i32, %struct.anon, %union.VALUETYPE, i16, i16, i16, i16, i16, i16, i64, i64, i64 }
%struct.cont = type { i64, ptr }
%struct.out = type { ptr, i64, ptr }
%struct.anon = type { ptr, i64, i64, i64 }
%union.VALUETYPE = type { [2 x i64], [112 x i8] }
%struct.file_pushbuf_t = type { ptr, i64, i32 }

; Function Attrs: nounwind uwtable
define hidden ptr @file_push_buffer(ptr noundef %0) #0 {
  %2 = alloca ptr, align 8
  %3 = alloca ptr, align 8
  %4 = alloca ptr, align 8
  store ptr %0, ptr %3, align 8
  %5 = load ptr, ptr %3, align 8
  %6 = getelementptr inbounds %struct.magic_set, ptr %5, i32 0, i32 7
  %7 = load i32, ptr %6, align 8
  %8 = and i32 %7, 1
  %9 = icmp ne i32 %8, 0
  br i1 %9, label %10, label %11

10:                                               ; preds = %1
  store ptr null, ptr %2, align 8
  br label %42

11:                                               ; preds = %1
  %12 = call noalias ptr @_emalloc_24()
  store ptr %12, ptr %4, align 8
  %13 = icmp eq ptr %12, null
  br i1 %13, label %14, label %15

14:                                               ; preds = %11
  store ptr null, ptr %2, align 8
  br label %42

15:                                               ; preds = %11
  %16 = load ptr, ptr %3, align 8
  %17 = getelementptr inbounds %struct.magic_set, ptr %16, i32 0, i32 2
  %18 = getelementptr inbounds %struct.out, ptr %17, i32 0, i32 0
  %19 = load ptr, ptr %18, align 8
  %20 = load ptr, ptr %4, align 8
  %21 = getelementptr inbounds %struct.file_pushbuf_t, ptr %20, i32 0, i32 0
  store ptr %19, ptr %21, align 8
  %22 = load ptr, ptr %3, align 8
  %23 = getelementptr inbounds %struct.magic_set, ptr %22, i32 0, i32 2
  %24 = getelementptr inbounds %struct.out, ptr %23, i32 0, i32 1
  %25 = load i64, ptr %24, align 8
  %26 = load ptr, ptr %4, align 8
  %27 = getelementptr inbounds %struct.file_pushbuf_t, ptr %26, i32 0, i32 1
  store i64 %25, ptr %27, align 8
  %28 = load ptr, ptr %3, align 8
  %29 = getelementptr inbounds %struct.magic_set, ptr %28, i32 0, i32 3
  %30 = load i32, ptr %29, align 8
  %31 = load ptr, ptr %4, align 8
  %32 = getelementptr inbounds %struct.file_pushbuf_t, ptr %31, i32 0, i32 2
  store i32 %30, ptr %32, align 8
  %33 = load ptr, ptr %3, align 8
  %34 = getelementptr inbounds %struct.magic_set, ptr %33, i32 0, i32 2
  %35 = getelementptr inbounds %struct.out, ptr %34, i32 0, i32 0
  store ptr null, ptr %35, align 8
  %36 = load ptr, ptr %3, align 8
  %37 = getelementptr inbounds %struct.magic_set, ptr %36, i32 0, i32 2
  %38 = getelementptr inbounds %struct.out, ptr %37, i32 0, i32 1
  store i64 0, ptr %38, align 8
  %39 = load ptr, ptr %3, align 8
  %40 = getelementptr inbounds %struct.magic_set, ptr %39, i32 0, i32 3
  store i32 0, ptr %40, align 8
  %41 = load ptr, ptr %4, align 8
  store ptr %41, ptr %2, align 8
  br label %42

42:                                               ; preds = %15, %14, %10
  %43 = load ptr, ptr %2, align 8
  ret ptr %43
}