; Function Attrs: nounwind uwtable
define hidden noalias ptr @file_push_buffer(ptr nocapture noundef %0) local_unnamed_addr #2 {
  %2 = getelementptr inbounds i8, ptr %0, i64 72
  %3 = load i32, ptr %2, align 8
  %4 = and i32 %3, 1
  %.not = icmp eq i32 %4, 0
  br i1 %.not, label %5, label %17

5:                                                ; preds = %1
  %6 = tail call noalias ptr @_emalloc_24() #17
  %7 = icmp eq ptr %6, null
  br i1 %7, label %17, label %8

8:                                                ; preds = %5
  %9 = getelementptr inbounds i8, ptr %0, i64 32
  %10 = load ptr, ptr %9, align 8
  store ptr %10, ptr %6, align 8
  %11 = getelementptr inbounds i8, ptr %0, i64 40
  %12 = load i64, ptr %11, align 8
  %13 = getelementptr inbounds i8, ptr %6, i64 8
  store i64 %12, ptr %13, align 8
  %14 = getelementptr inbounds i8, ptr %0, i64 56
  %15 = load i32, ptr %14, align 8
  %16 = getelementptr inbounds i8, ptr %6, i64 16
  store i32 %15, ptr %16, align 8
  store i32 0, ptr %14, align 8
  tail call void @llvm.memset.p0.i64(ptr noundef nonnull align 8 dereferenceable(16) %9, i8 0, i64 16, i1 false)
  br label %17

17:                                               ; preds = %5, %1, %8
  %.0 = phi ptr [ %6, %8 ], [ null, %1 ], [ null, %5 ]
  ret ptr %.0
}